target datalayout = "e-m:e-p270:32:32-p271:32:32-p272:64:64-i64:64-i128:128-f80:128-n8:16:32:64-S128"
target triple = "x86_64-pc-linux-gnu"

%struct.If_Grp_t_ = type { i8, i8, [16 x i8] }

@.str.1 = private unnamed_addr constant [2 x i8] c"\0A\00", align 1
@Truth6 = internal global [6 x i64] [i64 -6148914691236517206, i64 -3689348814741910324, i64 -1085102592571150096, i64 -71777214294589696, i64 -281470681808896, i64 -4294967296], align 16
@TruthAll = internal global [16 x [1024 x i64]] zeroinitializer, align 16
@.str.9 = private unnamed_addr constant [22 x i8] c"Verification FAILED!\0A\00", align 1

; Function Attrs: inlinehint nounwind uwtable
define internal i32 @If_CluWordNum(i32 noundef %0) #3 {
  %2 = alloca i32, align 4
  store i32 %0, ptr %2, align 4, !tbaa !3
  %3 = load i32, ptr %2, align 4, !tbaa !3
  %4 = icmp sle i32 %3, 6
  br i1 %4, label %5, label %6

5:                                                ; preds = %1
  br label %10

6:                                                ; preds = %1
  %7 = load i32, ptr %2, align 4, !tbaa !3
  %8 = sub nsw i32 %7, 6
  %9 = shl i32 1, %8
  br label %10

10:                                               ; preds = %6, %5
  %11 = phi i32 [ 1, %5 ], [ %9, %6 ]
  ret i32 %11
}

; Function Attrs: inlinehint nounwind uwtable
define internal i32 @If_CluEqual(ptr noundef %0, ptr noundef %1, i32 noundef %2) #3 {
  %4 = alloca i32, align 4
  %5 = alloca ptr, align 8
  %6 = alloca ptr, align 8
  %7 = alloca i32, align 4
  %8 = alloca i32, align 4
  %9 = alloca i32, align 4
  %10 = alloca i32, align 4
  store ptr %0, ptr %5, align 8, !tbaa !51
  store ptr %1, ptr %6, align 8, !tbaa !51
  store i32 %2, ptr %7, align 4, !tbaa !3
  call void @llvm.lifetime.start.p0(i64 4, ptr %8) #11
  call void @llvm.lifetime.start.p0(i64 4, ptr %9) #11
  %11 = load i32, ptr %7, align 4, !tbaa !3
  %12 = call i32 @If_CluWordNum(i32 noundef %11)
  store i32 %12, ptr %9, align 4, !tbaa !3
  store i32 0, ptr %8, align 4, !tbaa !3
  br label %13

13:                                               ; preds = %31, %3
  %14 = load i32, ptr %8, align 4, !tbaa !3
  %15 = load i32, ptr %9, align 4, !tbaa !3
  %16 = icmp slt i32 %14, %15
  br i1 %16, label %17, label %34

17:                                               ; preds = %13
  %18 = load ptr, ptr %5, align 8, !tbaa !51
  %19 = load i32, ptr %8, align 4, !tbaa !3
  %20 = sext i32 %19 to i64
  %21 = getelementptr inbounds i64, ptr %18, i64 %20
  %22 = load i64, ptr %21, align 8, !tbaa !79
  %23 = load ptr, ptr %6, align 8, !tbaa !51
  %24 = load i32, ptr %8, align 4, !tbaa !3
  %25 = sext i32 %24 to i64
  %26 = getelementptr inbounds i64, ptr %23, i64 %25
  %27 = load i64, ptr %26, align 8, !tbaa !79
  %28 = icmp ne i64 %22, %27
  br i1 %28, label %29, label %30

29:                                               ; preds = %17
  store i32 0, ptr %4, align 4
  store i32 1, ptr %10, align 4
  br label %35

30:                                               ; preds = %17
  br label %31

31:                                               ; preds = %30
  %32 = load i32, ptr %8, align 4, !tbaa !3
  %33 = add nsw i32 %32, 1
  store i32 %33, ptr %8, align 4, !tbaa !3
  br label %13, !llvm.loop !105

34:                                               ; preds = %13
  store i32 1, ptr %4, align 4
  store i32 1, ptr %10, align 4
  br label %35

35:                                               ; preds = %34, %29
  call void @llvm.lifetime.end.p0(i64 4, ptr %9) #11
  call void @llvm.lifetime.end.p0(i64 4, ptr %8) #11
  %36 = load i32, ptr %4, align 4
  ret i32 %36
}

; Function Attrs: inlinehint nounwind uwtable
define internal void @If_CluCopy(ptr noundef %0, ptr noundef %1, i32 noundef %2) #3 {
  %4 = alloca ptr, align 8
  %5 = alloca ptr, align 8
  %6 = alloca i32, align 4
  %7 = alloca i32, align 4
  %8 = alloca i32, align 4
  store ptr %0, ptr %4, align 8, !tbaa !51
  store ptr %1, ptr %5, align 8, !tbaa !51
  store i32 %2, ptr %6, align 4, !tbaa !3
  call void @llvm.lifetime.start.p0(i64 4, ptr %7) #11
  call void @llvm.lifetime.start.p0(i64 4, ptr %8) #11
  %9 = load i32, ptr %6, align 4, !tbaa !3
  %10 = call i32 @If_CluWordNum(i32 noundef %9)
  store i32 %10, ptr %8, align 4, !tbaa !3
  store i32 0, ptr %7, align 4, !tbaa !3
  br label %11

11:                                               ; preds = %25, %3
  %12 = load i32, ptr %7, align 4, !tbaa !3
  %13 = load i32, ptr %8, align 4, !tbaa !3
  %14 = icmp slt i32 %12, %13
  br i1 %14, label %15, label %28

15:                                               ; preds = %11
  %16 = load ptr, ptr %5, align 8, !tbaa !51
  %17 = load i32, ptr %7, align 4, !tbaa !3
  %18 = sext i32 %17 to i64
  %19 = getelementptr inbounds i64, ptr %16, i64 %18
  %20 = load i64, ptr %19, align 8, !tbaa !79
  %21 = load ptr, ptr %4, align 8, !tbaa !51
  %22 = load i32, ptr %7, align 4, !tbaa !3
  %23 = sext i32 %22 to i64
  %24 = getelementptr inbounds i64, ptr %21, i64 %23
  store i64 %20, ptr %24, align 8, !tbaa !79
  br label %25

25:                                               ; preds = %15
  %26 = load i32, ptr %7, align 4, !tbaa !3
  %27 = add nsw i32 %26, 1
  store i32 %27, ptr %7, align 4, !tbaa !3
  br label %11, !llvm.loop !101

28:                                               ; preds = %11
  call void @llvm.lifetime.end.p0(i64 4, ptr %8) #11
  call void @llvm.lifetime.end.p0(i64 4, ptr %7) #11
  ret void
}

; Function Attrs: nounwind uwtable
define void @If_CluInitTruthTables() #0 {
  %1 = alloca i32, align 4
  %2 = alloca i32, align 4
  call void @llvm.lifetime.start.p0(i64 4, ptr %1) #11
  call void @llvm.lifetime.start.p0(i64 4, ptr %2) #11
  store i32 0, ptr %1, align 4, !tbaa !3
  br label %3

3:                                                ; preds = %25, %0
  %4 = load i32, ptr %1, align 4, !tbaa !3
  %5 = icmp slt i32 %4, 6
  br i1 %5, label %6, label %28

6:                                                ; preds = %3
  store i32 0, ptr %2, align 4, !tbaa !3
  br label %7

7:                                                ; preds = %21, %6
  %8 = load i32, ptr %2, align 4, !tbaa !3
  %9 = icmp slt i32 %8, 1024
  br i1 %9, label %10, label %24

10:                                               ; preds = %7
  %11 = load i32, ptr %1, align 4, !tbaa !3
  %12 = sext i32 %11 to i64
  %13 = getelementptr inbounds [6 x i64], ptr @Truth6, i64 0, i64 %12
  %14 = load i64, ptr %13, align 8, !tbaa !79
  %15 = load i32, ptr %1, align 4, !tbaa !3
  %16 = sext i32 %15 to i64
  %17 = getelementptr inbounds [16 x [1024 x i64]], ptr @TruthAll, i64 0, i64 %16
  %18 = load i32, ptr %2, align 4, !tbaa !3
  %19 = sext i32 %18 to i64
  %20 = getelementptr inbounds [1024 x i64], ptr %17, i64 0, i64 %19
  store i64 %14, ptr %20, align 8, !tbaa !79
  br label %21

21:                                               ; preds = %10
  %22 = load i32, ptr %2, align 4, !tbaa !3
  %23 = add nsw i32 %22, 1
  store i32 %23, ptr %2, align 4, !tbaa !3
  br label %7, !llvm.loop !110

24:                                               ; preds = %7
  br label %25

25:                                               ; preds = %24
  %26 = load i32, ptr %1, align 4, !tbaa !3
  %27 = add nsw i32 %26, 1
  store i32 %27, ptr %1, align 4, !tbaa !3
  br label %3, !llvm.loop !111

28:                                               ; preds = %3
  store i32 6, ptr %1, align 4, !tbaa !3
  br label %29

29:                                               ; preds = %54, %28
  %30 = load i32, ptr %1, align 4, !tbaa !3
  %31 = icmp slt i32 %30, 16
  br i1 %31, label %32, label %57

32:                                               ; preds = %29
  store i32 0, ptr %2, align 4, !tbaa !3
  br label %33

33:                                               ; preds = %50, %32
  %34 = load i32, ptr %2, align 4, !tbaa !3
  %35 = icmp slt i32 %34, 1024
  br i1 %35, label %36, label %53

36:                                               ; preds = %33
  %37 = load i32, ptr %2, align 4, !tbaa !3
  %38 = load i32, ptr %1, align 4, !tbaa !3
  %39 = sub nsw i32 %38, 6
  %40 = ashr i32 %37, %39
  %41 = and i32 %40, 1
  %42 = icmp ne i32 %41, 0
  %43 = select i1 %42, i64 -1, i64 0
  %44 = load i32, ptr %1, align 4, !tbaa !3
  %45 = sext i32 %44 to i64
  %46 = getelementptr inbounds [16 x [1024 x i64]], ptr @TruthAll, i64 0, i64 %45
  %47 = load i32, ptr %2, align 4, !tbaa !3
  %48 = sext i32 %47 to i64
  %49 = getelementptr inbounds [1024 x i64], ptr %46, i64 0, i64 %48
  store i64 %43, ptr %49, align 8, !tbaa !79
  br label %50

50:                                               ; preds = %36
  %51 = load i32, ptr %2, align 4, !tbaa !3
  %52 = add nsw i32 %51, 1
  store i32 %52, ptr %2, align 4, !tbaa !3
  br label %33, !llvm.loop !112

53:                                               ; preds = %33
  br label %54

54:                                               ; preds = %53
  %55 = load i32, ptr %1, align 4, !tbaa !3
  %56 = add nsw i32 %55, 1
  store i32 %56, ptr %1, align 4, !tbaa !3
  br label %29, !llvm.loop !113

57:                                               ; preds = %29
  call void @llvm.lifetime.end.p0(i64 4, ptr %2) #11
  call void @llvm.lifetime.end.p0(i64 4, ptr %1) #11
  ret void
}

; Function Attrs: nounwind uwtable
define void @If_CluVerify(ptr noundef %0, i32 noundef %1, ptr noundef %2, ptr noundef %3, i64 noundef %4, ptr noundef %5) #0 {
  %7 = alloca ptr, align 8
  %8 = alloca i32, align 4
  %9 = alloca ptr, align 8
  %10 = alloca ptr, align 8
  %11 = alloca i64, align 8
  %12 = alloca ptr, align 8
  %13 = alloca [6 x [1024 x i64]], align 16
  %14 = alloca [1024 x i64], align 16
  %15 = alloca [1024 x i64], align 16
  %16 = alloca i32, align 4
  store ptr %0, ptr %7, align 8, !tbaa !51
  store i32 %1, ptr %8, align 4, !tbaa !3
  store ptr %2, ptr %9, align 8, !tbaa !106
  store ptr %3, ptr %10, align 8, !tbaa !106
  store i64 %4, ptr %11, align 8, !tbaa !79
  store ptr %5, ptr %12, align 8, !tbaa !51
  call void @llvm.lifetime.start.p0(i64 49152, ptr %13) #11
  call void @llvm.lifetime.start.p0(i64 8192, ptr %14) #11
  call void @llvm.lifetime.start.p0(i64 8192, ptr %15) #11
  call void @llvm.lifetime.start.p0(i64 4, ptr %16) #11
  %17 = load i64, ptr @TruthAll, align 16, !tbaa !79
  %18 = icmp eq i64 %17, 0
  br i1 %18, label %19, label %20

19:                                               ; preds = %6
  call void @If_CluInitTruthTables()
  br label %20

20:                                               ; preds = %19, %6
  store i32 0, ptr %16, align 4, !tbaa !3
  br label %21

21:                                               ; preds = %44, %20
  %22 = load i32, ptr %16, align 4, !tbaa !3
  %23 = load ptr, ptr %9, align 8, !tbaa !106
  %24 = getelementptr inbounds nuw %struct.If_Grp_t_, ptr %23, i32 0, i32 0
  %25 = load i8, ptr %24, align 1, !tbaa !49
  %26 = sext i8 %25 to i32
  %27 = icmp slt i32 %22, %26
  br i1 %27, label %28, label %47

28:                                               ; preds = %21
  %29 = load i32, ptr %16, align 4, !tbaa !3
  %30 = sext i32 %29 to i64
  %31 = getelementptr inbounds [6 x [1024 x i64]], ptr %13, i64 0, i64 %30
  %32 = getelementptr inbounds [1024 x i64], ptr %31, i64 0, i64 0
  %33 = load ptr, ptr %9, align 8, !tbaa !106
  %34 = getelementptr inbounds nuw %struct.If_Grp_t_, ptr %33, i32 0, i32 2
  %35 = load i32, ptr %16, align 4, !tbaa !3
  %36 = sext i32 %35 to i64
  %37 = getelementptr inbounds [16 x i8], ptr %34, i64 0, i64 %36
  %38 = load i8, ptr %37, align 1, !tbaa !46
  %39 = sext i8 %38 to i32
  %40 = sext i32 %39 to i64
  %41 = getelementptr inbounds [16 x [1024 x i64]], ptr @TruthAll, i64 0, i64 %40
  %42 = getelementptr inbounds [1024 x i64], ptr %41, i64 0, i64 0
  %43 = load i32, ptr %8, align 4, !tbaa !3
  call void @If_CluCopy(ptr noundef %32, ptr noundef %42, i32 noundef %43)
  br label %44

44:                                               ; preds = %28
  %45 = load i32, ptr %16, align 4, !tbaa !3
  %46 = add nsw i32 %45, 1
  store i32 %46, ptr %16, align 4, !tbaa !3
  br label %21, !llvm.loop !114

47:                                               ; preds = %21
  %48 = load i32, ptr %8, align 4, !tbaa !3
  %49 = load ptr, ptr %9, align 8, !tbaa !106
  %50 = getelementptr inbounds [6 x [1024 x i64]], ptr %13, i64 0, i64 0
  %51 = getelementptr inbounds [1024 x i64], ptr %14, i64 0, i64 0
  call void @If_CluComposeLut(i32 noundef %48, ptr noundef %49, ptr noundef %11, ptr noundef %50, ptr noundef %51)
  store i32 0, ptr %16, align 4, !tbaa !3
  br label %52

52:                                               ; preds = %93, %47
  %53 = load i32, ptr %16, align 4, !tbaa !3
  %54 = load ptr, ptr %10, align 8, !tbaa !106
  %55 = getelementptr inbounds nuw %struct.If_Grp_t_, ptr %54, i32 0, i32 0
  %56 = load i8, ptr %55, align 1, !tbaa !49
  %57 = sext i8 %56 to i32
  %58 = icmp slt i32 %53, %57
  br i1 %58, label %59, label %96

59:                                               ; preds = %52
  %60 = load ptr, ptr %10, align 8, !tbaa !106
  %61 = getelementptr inbounds nuw %struct.If_Grp_t_, ptr %60, i32 0, i32 2
  %62 = load i32, ptr %16, align 4, !tbaa !3
  %63 = sext i32 %62 to i64
  %64 = getelementptr inbounds [16 x i8], ptr %61, i64 0, i64 %63
  %65 = load i8, ptr %64, align 1, !tbaa !46
  %66 = sext i8 %65 to i32
  %67 = load i32, ptr %8, align 4, !tbaa !3
  %68 = icmp eq i32 %66, %67
  br i1 %68, label %69, label %76

69:                                               ; preds = %59
  %70 = load i32, ptr %16, align 4, !tbaa !3
  %71 = sext i32 %70 to i64
  %72 = getelementptr inbounds [6 x [1024 x i64]], ptr %13, i64 0, i64 %71
  %73 = getelementptr inbounds [1024 x i64], ptr %72, i64 0, i64 0
  %74 = getelementptr inbounds [1024 x i64], ptr %14, i64 0, i64 0
  %75 = load i32, ptr %8, align 4, !tbaa !3
  call void @If_CluCopy(ptr noundef %73, ptr noundef %74, i32 noundef %75)
  br label %92

76:                                               ; preds = %59
  %77 = load i32, ptr %16, align 4, !tbaa !3
  %78 = sext i32 %77 to i64
  %79 = getelementptr inbounds [6 x [1024 x i64]], ptr %13, i64 0, i64 %78
  %80 = getelementptr inbounds [1024 x i64], ptr %79, i64 0, i64 0
  %81 = load ptr, ptr %10, align 8, !tbaa !106
  %82 = getelementptr inbounds nuw %struct.If_Grp_t_, ptr %81, i32 0, i32 2
  %83 = load i32, ptr %16, align 4, !tbaa !3
  %84 = sext i32 %83 to i64
  %85 = getelementptr inbounds [16 x i8], ptr %82, i64 0, i64 %84
  %86 = load i8, ptr %85, align 1, !tbaa !46
  %87 = sext i8 %86 to i32
  %88 = sext i32 %87 to i64
  %89 = getelementptr inbounds [16 x [1024 x i64]], ptr @TruthAll, i64 0, i64 %88
  %90 = getelementptr inbounds [1024 x i64], ptr %89, i64 0, i64 0
  %91 = load i32, ptr %8, align 4, !tbaa !3
  call void @If_CluCopy(ptr noundef %80, ptr noundef %90, i32 noundef %91)
  br label %92

92:                                               ; preds = %76, %69
  br label %93

93:                                               ; preds = %92
  %94 = load i32, ptr %16, align 4, !tbaa !3
  %95 = add nsw i32 %94, 1
  store i32 %95, ptr %16, align 4, !tbaa !3
  br label %52, !llvm.loop !115

96:                                               ; preds = %52
  %97 = load i32, ptr %8, align 4, !tbaa !3
  %98 = load ptr, ptr %10, align 8, !tbaa !106
  %99 = load ptr, ptr %12, align 8, !tbaa !51
  %100 = getelementptr inbounds [6 x [1024 x i64]], ptr %13, i64 0, i64 0
  %101 = getelementptr inbounds [1024 x i64], ptr %15, i64 0, i64 0
  call void @If_CluComposeLut(i32 noundef %97, ptr noundef %98, ptr noundef %99, ptr noundef %100, ptr noundef %101)
  %102 = getelementptr inbounds [1024 x i64], ptr %15, i64 0, i64 0
  %103 = load ptr, ptr %7, align 8, !tbaa !51
  %104 = load i32, ptr %8, align 4, !tbaa !3
  %105 = call i32 @If_CluEqual(ptr noundef %102, ptr noundef %103, i32 noundef %104)
  %106 = icmp ne i32 %105, 0
  br i1 %106, label %121, label %107

107:                                              ; preds = %96
  %108 = call i32 (ptr, ...) @printf(ptr noundef @.str.1)
  %109 = load i32, ptr %8, align 4, !tbaa !3
  %110 = load ptr, ptr %9, align 8, !tbaa !106
  %111 = load ptr, ptr %10, align 8, !tbaa !106
  %112 = load i64, ptr %11, align 8, !tbaa !79
  %113 = load ptr, ptr %12, align 8, !tbaa !51
  call void @If_CluPrintConfig(i32 noundef %109, ptr noundef %110, ptr noundef %111, i64 noundef %112, ptr noundef %113)
  %114 = getelementptr inbounds [1024 x i64], ptr %15, i64 0, i64 0
  %115 = load i32, ptr %8, align 4, !tbaa !3
  call void @Kit_DsdPrintFromTruth(ptr noundef %114, i32 noundef %115)
  %116 = call i32 (ptr, ...) @printf(ptr noundef @.str.1)
  %117 = load ptr, ptr %7, align 8, !tbaa !51
  %118 = load i32, ptr %8, align 4, !tbaa !3
  call void @Kit_DsdPrintFromTruth(ptr noundef %117, i32 noundef %118)
  %119 = call i32 (ptr, ...) @printf(ptr noundef @.str.1)
  %120 = call i32 (ptr, ...) @printf(ptr noundef @.str.9)
  br label %121

121:                                              ; preds = %107, %96
  call void @llvm.lifetime.end.p0(i64 4, ptr %16) #11
  call void @llvm.lifetime.end.p0(i64 8192, ptr %15) #11
  call void @llvm.lifetime.end.p0(i64 8192, ptr %14) #11
  call void @llvm.lifetime.end.p0(i64 49152, ptr %13) #11
  ret void
}