; Function Attrs: nounwind uwtable
define void @If_CluVerify(ptr noundef %0, i32 noundef %1, ptr noundef readonly captures(none) %2, ptr noundef readonly captures(none) %3, i64 noundef %4, ptr noundef %5) local_unnamed_addr #2 {
  %7 = alloca i64, align 8
  %8 = alloca [6 x [1024 x i64]], align 16
  %9 = alloca [1024 x i64], align 16
  %10 = alloca [1024 x i64], align 16
  store i64 %4, ptr %7, align 8, !tbaa !16
  call void @llvm.lifetime.start.p0(i64 49152, ptr nonnull %8) #22
  call void @llvm.lifetime.start.p0(i64 8192, ptr nonnull %9) #22
  call void @llvm.lifetime.start.p0(i64 8192, ptr nonnull %10) #22
  %11 = load i64, ptr @TruthAll, align 16, !tbaa !16
  %12 = icmp eq i64 %11, 0
  br i1 %12, label %.preheader18.i, label %If_CluInitTruthTables.exit

.preheader18.i:                                   ; preds = %6, %17
  %indvars.iv24.i = phi i64 [ %indvars.iv.next25.i, %17 ], [ 0, %6 ]
  %13 = getelementptr inbounds nuw [6 x i64], ptr @s_Truths6, i64 0, i64 %indvars.iv24.i
  %14 = load i64, ptr %13, align 8, !tbaa !16
  br label %15

15:                                               ; preds = %15, %.preheader18.i
  %indvars.iv.i = phi i64 [ 0, %.preheader18.i ], [ %indvars.iv.next.i, %15 ]
  %16 = getelementptr inbounds nuw [16 x [1024 x i64]], ptr @TruthAll, i64 0, i64 %indvars.iv24.i, i64 %indvars.iv.i
  store i64 %14, ptr %16, align 8, !tbaa !16
  %indvars.iv.next.i = add nuw nsw i64 %indvars.iv.i, 1
  %exitcond.not.i = icmp eq i64 %indvars.iv.next.i, 1024
  br i1 %exitcond.not.i, label %17, label %15, !llvm.loop !114

17:                                               ; preds = %15
  %indvars.iv.next25.i = add nuw nsw i64 %indvars.iv24.i, 1
  %exitcond27.not.i = icmp eq i64 %indvars.iv.next25.i, 6
  br i1 %exitcond27.not.i, label %.preheader.i, label %.preheader18.i, !llvm.loop !115

.preheader.i:                                     ; preds = %17, %26
  %indvars.iv32.i = phi i64 [ %indvars.iv.next33.i, %26 ], [ 6, %17 ]
  %18 = trunc i64 %indvars.iv32.i to i32
  %19 = add i32 %18, -6
  %20 = shl nuw i32 1, %19
  br label %21

21:                                               ; preds = %21, %.preheader.i
  %indvars.iv28.i = phi i64 [ 0, %.preheader.i ], [ %indvars.iv.next29.i, %21 ]
  %22 = trunc nuw nsw i64 %indvars.iv28.i to i32
  %23 = and i32 %20, %22
  %.not.i = icmp ne i32 %23, 0
  %24 = sext i1 %.not.i to i64
  %25 = getelementptr inbounds nuw [16 x [1024 x i64]], ptr @TruthAll, i64 0, i64 %indvars.iv32.i, i64 %indvars.iv28.i
  store i64 %24, ptr %25, align 8, !tbaa !16
  %indvars.iv.next29.i = add nuw nsw i64 %indvars.iv28.i, 1
  %exitcond31.not.i = icmp eq i64 %indvars.iv.next29.i, 1024
  br i1 %exitcond31.not.i, label %26, label %21, !llvm.loop !116

26:                                               ; preds = %21
  %indvars.iv.next33.i = add nuw nsw i64 %indvars.iv32.i, 1
  %exitcond35.not.i = icmp eq i64 %indvars.iv.next33.i, 16
  br i1 %exitcond35.not.i, label %If_CluInitTruthTables.exit, label %.preheader.i, !llvm.loop !117

If_CluInitTruthTables.exit:                       ; preds = %26, %6
  %27 = load i8, ptr %2, align 1, !tbaa !110
  %wide.trip.count = sext i8 %27 to i64
  %28 = icmp sgt i8 %27, 0
  br i1 %28, label %.lr.ph, label %._crit_edge

.lr.ph:                                           ; preds = %If_CluInitTruthTables.exit
  %29 = getelementptr inbounds nuw i8, ptr %2, i64 2
  %30 = icmp slt i32 %1, 7
  %31 = add nsw i32 %1, -6
  %32 = shl nuw i32 1, %31
  %33 = select i1 %30, i32 1, i32 %32
  %34 = icmp sgt i32 %33, 0
  br i1 %34, label %.lr.ph.preheader.i.us.preheader, label %._crit_edge

.lr.ph.preheader.i.us.preheader:                  ; preds = %.lr.ph
  %wide.trip.count.i = zext nneg i32 %33 to i64
  %35 = shl nuw nsw i64 %wide.trip.count.i, 3
  br label %.lr.ph.preheader.i.us

.lr.ph.preheader.i.us:                            ; preds = %.lr.ph.preheader.i.us.preheader, %.lr.ph.preheader.i.us
  %indvar = phi i64 [ 0, %.lr.ph.preheader.i.us.preheader ], [ %indvar.next, %.lr.ph.preheader.i.us ]
  %36 = shl nuw nsw i64 %indvar, 13
  %scevgep = getelementptr nuw i8, ptr %8, i64 %36
  %37 = getelementptr inbounds nuw [16 x i8], ptr %29, i64 0, i64 %indvar
  %38 = load i8, ptr %37, align 1, !tbaa !59
  %39 = sext i8 %38 to i64
  %40 = getelementptr inbounds [16 x [1024 x i64]], ptr @TruthAll, i64 0, i64 %39
  call void @llvm.memcpy.p0.p0.i64(ptr noundef nonnull align 16 dereferenceable(1) %scevgep, ptr noundef nonnull align 16 dereferenceable(1) %40, i64 %35, i1 false), !tbaa !16
  %indvar.next = add nuw nsw i64 %indvar, 1
  %exitcond.not = icmp eq i64 %indvar.next, %wide.trip.count
  br i1 %exitcond.not, label %._crit_edge, label %.lr.ph.preheader.i.us, !llvm.loop !118

._crit_edge:                                      ; preds = %.lr.ph.preheader.i.us, %.lr.ph, %If_CluInitTruthTables.exit
  call fastcc void @If_CluComposeLut(i32 noundef %1, ptr noundef nonnull %2, ptr noundef nonnull %7, ptr noundef %8, ptr noundef %9)
  %41 = load i8, ptr %3, align 1, !tbaa !110
  %42 = icmp sgt i8 %41, 0
  br i1 %42, label %.lr.ph67, label %._crit_edge.._crit_edge68_crit_edge

._crit_edge.._crit_edge68_crit_edge:              ; preds = %._crit_edge
  %.pre = add nsw i32 %1, -6
  %.pre79 = shl nuw i32 1, %.pre
  br label %._crit_edge68

.lr.ph67:                                         ; preds = %._crit_edge
  %wide.trip.count77 = zext nneg i8 %41 to i64
  %43 = getelementptr inbounds nuw i8, ptr %3, i64 2
  %44 = icmp slt i32 %1, 7
  %45 = add nsw i32 %1, -6
  %46 = shl nuw i32 1, %45
  %47 = select i1 %44, i32 1, i32 %46
  %48 = icmp sgt i32 %47, 0
  %wide.trip.count.i48 = zext i32 %47 to i64
  %49 = shl nuw nsw i64 %wide.trip.count.i48, 3
  br label %50

50:                                               ; preds = %.lr.ph67, %If_CluCopy.exit46
  %indvar72 = phi i64 [ 0, %.lr.ph67 ], [ %indvar.next73, %If_CluCopy.exit46 ]
  %51 = shl nuw nsw i64 %indvar72, 13
  %scevgep75 = getelementptr i8, ptr %8, i64 %51
  %52 = getelementptr inbounds nuw [16 x i8], ptr %43, i64 0, i64 %indvar72
  %53 = load i8, ptr %52, align 1, !tbaa !59
  %54 = sext i8 %53 to i32
  %55 = icmp eq i32 %1, %54
  br i1 %55, label %56, label %57

56:                                               ; preds = %50
  br i1 %48, label %If_CluCopy.exit46.sink.split, label %If_CluCopy.exit46

57:                                               ; preds = %50
  br i1 %48, label %.lr.ph.i49.preheader, label %If_CluCopy.exit46

.lr.ph.i49.preheader:                             ; preds = %57
  %58 = sext i8 %53 to i64
  %59 = getelementptr [16 x [1024 x i64]], ptr @TruthAll, i64 0, i64 %58
  br label %If_CluCopy.exit46.sink.split

If_CluCopy.exit46.sink.split:                     ; preds = %56, %.lr.ph.i49.preheader
  %.sink = phi ptr [ %59, %.lr.ph.i49.preheader ], [ %9, %56 ]
  call void @llvm.memcpy.p0.p0.i64(ptr noundef nonnull align 16 dereferenceable(1) %scevgep75, ptr noundef nonnull align 16 dereferenceable(1) %.sink, i64 %49, i1 false), !tbaa !16
  br label %If_CluCopy.exit46

If_CluCopy.exit46:                                ; preds = %If_CluCopy.exit46.sink.split, %57, %56
  %indvar.next73 = add nuw nsw i64 %indvar72, 1
  %exitcond78.not = icmp eq i64 %indvar.next73, %wide.trip.count77
  br i1 %exitcond78.not, label %._crit_edge68, label %50, !llvm.loop !119

._crit_edge68:                                    ; preds = %If_CluCopy.exit46, %._crit_edge.._crit_edge68_crit_edge
  %.pre-phi80 = phi i32 [ %.pre79, %._crit_edge.._crit_edge68_crit_edge ], [ %46, %If_CluCopy.exit46 ]
  call fastcc void @If_CluComposeLut(i32 noundef %1, ptr noundef nonnull %3, ptr noundef %5, ptr noundef %8, ptr noundef %10)
  %60 = icmp slt i32 %1, 7
  %61 = select i1 %60, i32 1, i32 %.pre-phi80
  %62 = icmp sgt i32 %61, 0
  br i1 %62, label %.lr.ph.preheader.i54, label %If_CluEqual.exit.thread

.lr.ph.preheader.i54:                             ; preds = %._crit_edge68
  %wide.trip.count.i55 = zext nneg i32 %61 to i64
  br label %.lr.ph.i56

63:                                               ; preds = %.lr.ph.i56
  %indvars.iv.next.i59 = add nuw nsw i64 %indvars.iv.i57, 1
  %exitcond.not.i60 = icmp eq i64 %indvars.iv.next.i59, %wide.trip.count.i55
  br i1 %exitcond.not.i60, label %If_CluEqual.exit.thread, label %.lr.ph.i56, !llvm.loop !109

.lr.ph.i56:                                       ; preds = %63, %.lr.ph.preheader.i54
  %indvars.iv.i57 = phi i64 [ 0, %.lr.ph.preheader.i54 ], [ %indvars.iv.next.i59, %63 ]
  %64 = getelementptr inbounds nuw i64, ptr %10, i64 %indvars.iv.i57
  %65 = load i64, ptr %64, align 8, !tbaa !16
  %66 = getelementptr inbounds nuw i64, ptr %0, i64 %indvars.iv.i57
  %67 = load i64, ptr %66, align 8, !tbaa !16
  %.not.i58 = icmp eq i64 %65, %67
  br i1 %.not.i58, label %63, label %If_CluEqual.exit

If_CluEqual.exit:                                 ; preds = %.lr.ph.i56
  %putchar = tail call i32 @putchar(i32 10)
  tail call void @If_CluPrintConfig(i32 poison, ptr noundef nonnull %2, ptr noundef nonnull %3, i64 noundef %4, ptr noundef %5)
  call void @Kit_DsdPrintFromTruth(ptr noundef nonnull %10, i32 noundef %1) #22
  %putchar35 = call i32 @putchar(i32 10)
  call void @Kit_DsdPrintFromTruth(ptr noundef nonnull %0, i32 noundef %1) #22
  %putchar36 = call i32 @putchar(i32 10)
  %puts = call i32 @puts(ptr nonnull dereferenceable(1) @str.4)
  br label %If_CluEqual.exit.thread

If_CluEqual.exit.thread:                          ; preds = %63, %._crit_edge68, %If_CluEqual.exit
  call void @llvm.lifetime.end.p0(i64 8192, ptr nonnull %10) #22
  call void @llvm.lifetime.end.p0(i64 8192, ptr nonnull %9) #22
  call void @llvm.lifetime.end.p0(i64 49152, ptr nonnull %8) #22
  ret void
}